; Function Attrs: mustprogress uwtable
define noundef i32 @_ZNK6icu_7721RuleBasedNumberFormat36getNumberOfRuleSetDisplayNameLocalesEv(ptr noundef nonnull readonly align 8 captures(none) dereferenceable(456) %0) unnamed_addr #3 align 2 {
  %2 = getelementptr inbounds nuw i8, ptr %0, i64 368
  %3 = load ptr, ptr %2, align 8, !tbaa !91
  %.not = icmp eq ptr %3, null
  br i1 %.not, label %9, label %4

4:                                                ; preds = %1
  %5 = load ptr, ptr %3, align 8, !tbaa !3
  %6 = getelementptr inbounds nuw i8, ptr %5, i64 40
  %7 = load ptr, ptr %6, align 8
  %8 = tail call noundef i32 %7(ptr noundef nonnull align 8 dereferenceable(12) %3)
  br label %9

9:                                                ; preds = %1, %4
  %.0 = phi i32 [ %8, %4 ], [ 0, %1 ]
  ret i32 %.0
}